target datalayout = "e-m:e-p270:32:32-p271:32:32-p272:64:64-i64:64-i128:128-f80:128-n8:16:32:64-S128"
target triple = "x86_64-pc-linux-gnu"

%struct.macroblockd = type { i32, i32, i32, i8, [3 x %struct.macroblockd_plane], %struct.TileInfo, ptr, i8, i8, i8, i8, ptr, ptr, ptr, ptr, ptr, i32, i32, i32, i32, i32, [2 x ptr], ptr, [3 x ptr], [3 x [32 x i8]], ptr, [32 x i8], ptr, ptr, [32 x i8], [3 x %struct.WienerInfo], [3 x %struct.SgrprojInfo], i8, i8, [29 x [8 x %struct.candidate_mv]], [29 x [8 x i16]], i8, i8, [8 x i8], ptr, i32, [8 x i32], [8 x i32], i32, i32, ptr, ptr, i8, [4 x i8], [4 x i8], [7 x i8], [32768 x i8], %struct.cfl_ctx, [2 x i16], ptr, [2 x ptr] }
%struct.macroblockd_plane = type { i8, i32, i32, %struct.buf_2d, [2 x %struct.buf_2d], ptr, ptr, [8 x [2 x i16]], ptr, i8, i8, [8 x [19 x ptr]], [8 x [19 x ptr]] }
%struct.buf_2d = type { ptr, ptr, i32, i32, i32 }
%struct.TileInfo = type { i32, i32, i32, i32, i32, i32 }
%struct.WienerInfo = type { [8 x i16], [8 x i16] }
%struct.SgrprojInfo = type { i32, [2 x i32] }
%struct.candidate_mv = type { %union.int_mv, %union.int_mv }
%union.int_mv = type { i32 }
%struct.cfl_ctx = type { [1024 x i16], [1024 x i16], [2 x i32], i32, [2 x [32 x i16]], i32, i32, i32, i32, i32, i32 }
%struct.MB_MODE_INFO = type <{ i8, i8, i8, i8, i32, [2 x %union.int_mv], [2 x i8], [2 x i8], %union.int_interpfilters, i8, i8, i8, i8, %struct.WarpedMotionParams, i8, i8, [6 x i8], %struct.INTERINTER_COMPOUND_DATA, [2 x i8], %struct.FILTER_INTRA_MODE_INFO, i8, i8, %struct.PALETTE_MODE_INFO, i8, i8, [16 x i8], i8, [4 x i8], i16, [7 x i8] }>
%union.int_interpfilters = type { i32 }
%struct.WarpedMotionParams = type { [8 x i32], i16, i16, i16, i16, i8, i8 }
%struct.INTERINTER_COMPOUND_DATA = type { ptr, i8, i8, i8, i8 }
%struct.FILTER_INTRA_MODE_INFO = type { i8, i8 }
%struct.PALETTE_MODE_INFO = type { [24 x i16], [2 x i8] }

; Function Attrs: nounwind uwtable
define internal i32 @is_intrabc_block(ptr noundef %0) #0 {
  %2 = alloca ptr, align 8
  store ptr %0, ptr %2, align 8
  %3 = load ptr, ptr %2, align 8
  %4 = getelementptr inbounds nuw %struct.MB_MODE_INFO, ptr %3, i32 0, i32 28
  %5 = load i16, ptr %4, align 1
  %6 = lshr i16 %5, 7
  %7 = and i16 %6, 1
  %8 = trunc i16 %7 to i8
  %9 = zext i8 %8 to i32
  ret i32 %9
}

; Function Attrs: nounwind uwtable
define internal i32 @is_inter_block(ptr noundef %0) #0 {
  %2 = alloca ptr, align 8
  store ptr %0, ptr %2, align 8
  %3 = load ptr, ptr %2, align 8
  %4 = call i32 @is_intrabc_block(ptr noundef %3)
  %5 = icmp ne i32 %4, 0
  br i1 %5, label %13, label %6

6:                                                ; preds = %1
  %7 = load ptr, ptr %2, align 8
  %8 = getelementptr inbounds nuw %struct.MB_MODE_INFO, ptr %7, i32 0, i32 6
  %9 = getelementptr inbounds [2 x i8], ptr %8, i64 0, i64 0
  %10 = load i8, ptr %9, align 8
  %11 = sext i8 %10 to i32
  %12 = icmp sgt i32 %11, 0
  br label %13

13:                                               ; preds = %6, %1
  %14 = phi i1 [ true, %1 ], [ %12, %6 ]
  %15 = zext i1 %14 to i32
  ret i32 %15
}

; Function Attrs: nounwind uwtable
define internal i32 @has_second_ref(ptr noundef %0) #0 {
  %2 = alloca ptr, align 8
  store ptr %0, ptr %2, align 8
  %3 = load ptr, ptr %2, align 8
  %4 = getelementptr inbounds nuw %struct.MB_MODE_INFO, ptr %3, i32 0, i32 6
  %5 = getelementptr inbounds [2 x i8], ptr %4, i64 0, i64 1
  %6 = load i8, ptr %5, align 1
  %7 = sext i8 %6 to i32
  %8 = icmp sgt i32 %7, 0
  %9 = zext i1 %8 to i32
  ret i32 %9
}

; Function Attrs: nounwind uwtable
define hidden i32 @av1_get_reference_mode_context(ptr noundef %0) #0 {
  %2 = alloca ptr, align 8
  %3 = alloca i32, align 4
  %4 = alloca ptr, align 8
  %5 = alloca ptr, align 8
  %6 = alloca i32, align 4
  %7 = alloca i32, align 4
  %8 = alloca ptr, align 8
  store ptr %0, ptr %2, align 8
  %9 = load ptr, ptr %2, align 8
  %10 = getelementptr inbounds nuw %struct.macroblockd, ptr %9, i32 0, i32 12
  %11 = load ptr, ptr %10, align 16
  store ptr %11, ptr %4, align 8
  %12 = load ptr, ptr %2, align 8
  %13 = getelementptr inbounds nuw %struct.macroblockd, ptr %12, i32 0, i32 11
  %14 = load ptr, ptr %13, align 8
  store ptr %14, ptr %5, align 8
  %15 = load ptr, ptr %2, align 8
  %16 = getelementptr inbounds nuw %struct.macroblockd, ptr %15, i32 0, i32 7
  %17 = load i8, ptr %16, align 16
  %18 = trunc i8 %17 to i1
  %19 = zext i1 %18 to i32
  store i32 %19, ptr %6, align 4
  %20 = load ptr, ptr %2, align 8
  %21 = getelementptr inbounds nuw %struct.macroblockd, ptr %20, i32 0, i32 8
  %22 = load i8, ptr %21, align 1
  %23 = trunc i8 %22 to i1
  %24 = zext i1 %23 to i32
  store i32 %24, ptr %7, align 4
  %25 = load i32, ptr %6, align 4
  %26 = icmp ne i32 %25, 0
  br i1 %26, label %27, label %130

27:                                               ; preds = %1
  %28 = load i32, ptr %7, align 4
  %29 = icmp ne i32 %28, 0
  br i1 %29, label %30, label %130

30:                                               ; preds = %27
  %31 = load ptr, ptr %4, align 8
  %32 = call i32 @has_second_ref(ptr noundef %31)
  %33 = icmp ne i32 %32, 0
  br i1 %33, label %72, label %34

34:                                               ; preds = %30
  %35 = load ptr, ptr %5, align 8
  %36 = call i32 @has_second_ref(ptr noundef %35)
  %37 = icmp ne i32 %36, 0
  br i1 %37, label %72, label %38

38:                                               ; preds = %34
  %39 = load ptr, ptr %4, align 8
  %40 = getelementptr inbounds nuw %struct.MB_MODE_INFO, ptr %39, i32 0, i32 6
  %41 = getelementptr inbounds [2 x i8], ptr %40, i64 0, i64 0
  %42 = load i8, ptr %41, align 8
  %43 = sext i8 %42 to i32
  %44 = icmp sge i32 %43, 5
  br i1 %44, label %45, label %52

45:                                               ; preds = %38
  %46 = load ptr, ptr %4, align 8
  %47 = getelementptr inbounds nuw %struct.MB_MODE_INFO, ptr %46, i32 0, i32 6
  %48 = getelementptr inbounds [2 x i8], ptr %47, i64 0, i64 0
  %49 = load i8, ptr %48, align 8
  %50 = sext i8 %49 to i32
  %51 = icmp sle i32 %50, 7
  br label %52

52:                                               ; preds = %45, %38
  %53 = phi i1 [ false, %38 ], [ %51, %45 ]
  %54 = zext i1 %53 to i32
  %55 = load ptr, ptr %5, align 8
  %56 = getelementptr inbounds nuw %struct.MB_MODE_INFO, ptr %55, i32 0, i32 6
  %57 = getelementptr inbounds [2 x i8], ptr %56, i64 0, i64 0
  %58 = load i8, ptr %57, align 8
  %59 = sext i8 %58 to i32
  %60 = icmp sge i32 %59, 5
  br i1 %60, label %61, label %68

61:                                               ; preds = %52
  %62 = load ptr, ptr %5, align 8
  %63 = getelementptr inbounds nuw %struct.MB_MODE_INFO, ptr %62, i32 0, i32 6
  %64 = getelementptr inbounds [2 x i8], ptr %63, i64 0, i64 0
  %65 = load i8, ptr %64, align 8
  %66 = sext i8 %65 to i32
  %67 = icmp sle i32 %66, 7
  br label %68

68:                                               ; preds = %61, %52
  %69 = phi i1 [ false, %52 ], [ %67, %61 ]
  %70 = zext i1 %69 to i32
  %71 = xor i32 %54, %70
  store i32 %71, ptr %3, align 4
  br label %129

72:                                               ; preds = %34, %30
  %73 = load ptr, ptr %4, align 8
  %74 = call i32 @has_second_ref(ptr noundef %73)
  %75 = icmp ne i32 %74, 0
  br i1 %75, label %99, label %76

76:                                               ; preds = %72
  %77 = load ptr, ptr %4, align 8
  %78 = getelementptr inbounds nuw %struct.MB_MODE_INFO, ptr %77, i32 0, i32 6
  %79 = getelementptr inbounds [2 x i8], ptr %78, i64 0, i64 0
  %80 = load i8, ptr %79, align 8
  %81 = sext i8 %80 to i32
  %82 = icmp sge i32 %81, 5
  br i1 %82, label %83, label %90

83:                                               ; preds = %76
  %84 = load ptr, ptr %4, align 8
  %85 = getelementptr inbounds nuw %struct.MB_MODE_INFO, ptr %84, i32 0, i32 6
  %86 = getelementptr inbounds [2 x i8], ptr %85, i64 0, i64 0
  %87 = load i8, ptr %86, align 8
  %88 = sext i8 %87 to i32
  %89 = icmp sle i32 %88, 7
  br i1 %89, label %95, label %90

90:                                               ; preds = %83, %76
  %91 = load ptr, ptr %4, align 8
  %92 = call i32 @is_inter_block(ptr noundef %91)
  %93 = icmp ne i32 %92, 0
  %94 = xor i1 %93, true
  br label %95

95:                                               ; preds = %90, %83
  %96 = phi i1 [ true, %83 ], [ %94, %90 ]
  %97 = zext i1 %96 to i32
  %98 = add nsw i32 2, %97
  store i32 %98, ptr %3, align 4
  br label %128

99:                                               ; preds = %72
  %100 = load ptr, ptr %5, align 8
  %101 = call i32 @has_second_ref(ptr noundef %100)
  %102 = icmp ne i32 %101, 0
  br i1 %102, label %126, label %103

103:                                              ; preds = %99
  %104 = load ptr, ptr %5, align 8
  %105 = getelementptr inbounds nuw %struct.MB_MODE_INFO, ptr %104, i32 0, i32 6
  %106 = getelementptr inbounds [2 x i8], ptr %105, i64 0, i64 0
  %107 = load i8, ptr %106, align 8
  %108 = sext i8 %107 to i32
  %109 = icmp sge i32 %108, 5
  br i1 %109, label %110, label %117

110:                                              ; preds = %103
  %111 = load ptr, ptr %5, align 8
  %112 = getelementptr inbounds nuw %struct.MB_MODE_INFO, ptr %111, i32 0, i32 6
  %113 = getelementptr inbounds [2 x i8], ptr %112, i64 0, i64 0
  %114 = load i8, ptr %113, align 8
  %115 = sext i8 %114 to i32
  %116 = icmp sle i32 %115, 7
  br i1 %116, label %122, label %117

117:                                              ; preds = %110, %103
  %118 = load ptr, ptr %5, align 8
  %119 = call i32 @is_inter_block(ptr noundef %118)
  %120 = icmp ne i32 %119, 0
  %121 = xor i1 %120, true
  br label %122

122:                                              ; preds = %117, %110
  %123 = phi i1 [ true, %110 ], [ %121, %117 ]
  %124 = zext i1 %123 to i32
  %125 = add nsw i32 2, %124
  store i32 %125, ptr %3, align 4
  br label %127

126:                                              ; preds = %99
  store i32 4, ptr %3, align 4
  br label %127

127:                                              ; preds = %126, %122
  br label %128

128:                                              ; preds = %127, %95
  br label %129

129:                                              ; preds = %128, %68
  br label %169

130:                                              ; preds = %27, %1
  %131 = load i32, ptr %6, align 4
  %132 = icmp ne i32 %131, 0
  br i1 %132, label %136, label %133

133:                                              ; preds = %130
  %134 = load i32, ptr %7, align 4
  %135 = icmp ne i32 %134, 0
  br i1 %135, label %136, label %167

136:                                              ; preds = %133, %130
  %137 = load i32, ptr %6, align 4
  %138 = icmp ne i32 %137, 0
  br i1 %138, label %139, label %141

139:                                              ; preds = %136
  %140 = load ptr, ptr %4, align 8
  br label %143

141:                                              ; preds = %136
  %142 = load ptr, ptr %5, align 8
  br label %143

143:                                              ; preds = %141, %139
  %144 = phi ptr [ %140, %139 ], [ %142, %141 ]
  store ptr %144, ptr %8, align 8
  %145 = load ptr, ptr %8, align 8
  %146 = call i32 @has_second_ref(ptr noundef %145)
  %147 = icmp ne i32 %146, 0
  br i1 %147, label %165, label %148

148:                                              ; preds = %143
  %149 = load ptr, ptr %8, align 8
  %150 = getelementptr inbounds nuw %struct.MB_MODE_INFO, ptr %149, i32 0, i32 6
  %151 = getelementptr inbounds [2 x i8], ptr %150, i64 0, i64 0
  %152 = load i8, ptr %151, align 8
  %153 = sext i8 %152 to i32
  %154 = icmp sge i32 %153, 5
  br i1 %154, label %155, label %162

155:                                              ; preds = %148
  %156 = load ptr, ptr %8, align 8
  %157 = getelementptr inbounds nuw %struct.MB_MODE_INFO, ptr %156, i32 0, i32 6
  %158 = getelementptr inbounds [2 x i8], ptr %157, i64 0, i64 0
  %159 = load i8, ptr %158, align 8
  %160 = sext i8 %159 to i32
  %161 = icmp sle i32 %160, 7
  br label %162

162:                                              ; preds = %155, %148
  %163 = phi i1 [ false, %148 ], [ %161, %155 ]
  %164 = zext i1 %163 to i32
  store i32 %164, ptr %3, align 4
  br label %166

165:                                              ; preds = %143
  store i32 3, ptr %3, align 4
  br label %166

166:                                              ; preds = %165, %162
  br label %168

167:                                              ; preds = %133
  store i32 1, ptr %3, align 4
  br label %168

168:                                              ; preds = %167, %166
  br label %169

169:                                              ; preds = %168, %129
  %170 = load i32, ptr %3, align 4
  ret i32 %170
}