; Function Attrs: mustprogress nofree norecurse nosync nounwind willreturn memory(read, inaccessiblemem: none) uwtable
define hidden range(i32 0, 5) i32 @av1_get_reference_mode_context(ptr nocapture noundef readonly %0) local_unnamed_addr #0 {
  %2 = getelementptr inbounds nuw i8, ptr %0, i64 7888
  %3 = load ptr, ptr %2, align 16
  %4 = getelementptr inbounds nuw i8, ptr %0, i64 7880
  %5 = load ptr, ptr %4, align 8
  %6 = getelementptr inbounds nuw i8, ptr %0, i64 7872
  %7 = load i8, ptr %6, align 16
  %8 = trunc i8 %7 to i1
  %9 = getelementptr inbounds nuw i8, ptr %0, i64 7873
  %10 = load i8, ptr %9, align 1
  %11 = trunc i8 %10 to i1
  %or.cond = select i1 %8, i1 %11, i1 false
  br i1 %or.cond, label %12, label %43

12:                                               ; preds = %1
  %13 = getelementptr i8, ptr %3, i64 17
  %.val = load i8, ptr %13, align 1
  %14 = icmp slt i8 %.val, 1
  %15 = getelementptr i8, ptr %5, i64 17
  %.val44 = load i8, ptr %15, align 1
  %16 = icmp slt i8 %.val44, 1
  br i1 %14, label %17, label %33

17:                                               ; preds = %12
  %18 = getelementptr inbounds nuw i8, ptr %3, i64 16
  %19 = load i8, ptr %18, align 8
  %20 = add i8 %19, -5
  %narrow53 = icmp ult i8 %20, 3
  br i1 %16, label %21, label %27

21:                                               ; preds = %17
  %22 = getelementptr inbounds nuw i8, ptr %5, i64 16
  %23 = load i8, ptr %22, align 8
  %24 = add i8 %23, -5
  %narrow54 = icmp ult i8 %24, 3
  %25 = xor i1 %narrow53, %narrow54
  %26 = zext i1 %25 to i32
  br label %53

27:                                               ; preds = %17
  br i1 %narrow53, label %53, label %is_inter_block.exit

is_inter_block.exit:                              ; preds = %27
  %28 = getelementptr i8, ptr %3, i64 175
  %.val.i = load i16, ptr %28, align 1
  %29 = and i16 %.val.i, 128
  %.not.i = icmp ne i16 %29, 0
  %30 = icmp sgt i8 %19, 0
  %narrow52 = or i1 %30, %.not.i
  %31 = zext i1 %narrow52 to i32
  %32 = xor i32 %31, 3
  br label %53

33:                                               ; preds = %12
  br i1 %16, label %34, label %53

34:                                               ; preds = %33
  %35 = getelementptr inbounds nuw i8, ptr %5, i64 16
  %36 = load i8, ptr %35, align 8
  %37 = add i8 %36, -5
  %or.cond43 = icmp ult i8 %37, 3
  br i1 %or.cond43, label %53, label %is_inter_block.exit50

is_inter_block.exit50:                            ; preds = %34
  %38 = getelementptr i8, ptr %5, i64 175
  %.val.i48 = load i16, ptr %38, align 1
  %39 = and i16 %.val.i48, 128
  %.not.i49 = icmp ne i16 %39, 0
  %40 = icmp sgt i8 %36, 0
  %narrow51 = or i1 %40, %.not.i49
  %41 = zext i1 %narrow51 to i32
  %42 = xor i32 %41, 3
  br label %53

43:                                               ; preds = %1
  %or.cond3 = select i1 %8, i1 true, i1 %11
  br i1 %or.cond3, label %44, label %53

44:                                               ; preds = %43
  %45 = select i1 %8, ptr %3, ptr %5
  %46 = getelementptr i8, ptr %45, i64 17
  %.val47 = load i8, ptr %46, align 1
  %47 = icmp slt i8 %.val47, 1
  br i1 %47, label %48, label %53

48:                                               ; preds = %44
  %49 = getelementptr inbounds nuw i8, ptr %45, i64 16
  %50 = load i8, ptr %49, align 8
  %51 = add i8 %50, -5
  %narrow = icmp ult i8 %51, 3
  %52 = zext i1 %narrow to i32
  br label %53

53:                                               ; preds = %43, %44, %33, %is_inter_block.exit50, %34, %is_inter_block.exit, %27, %48, %21
  %.0 = phi i32 [ %26, %21 ], [ %52, %48 ], [ %32, %is_inter_block.exit ], [ 3, %27 ], [ %42, %is_inter_block.exit50 ], [ 3, %34 ], [ 4, %33 ], [ 3, %44 ], [ 1, %43 ]
  ret i32 %.0
}